target datalayout = "e-m:e-p270:32:32-p271:32:32-p272:64:64-i64:64-i128:128-f80:128-n8:16:32:64-S128"
target triple = "x86_64-pc-linux-gnu"

@.str.18 = private unnamed_addr constant [33 x i8] c"../openssl/test/evp_extra_test.c\00", align 1
@success = internal global i32 1, align 4
@.str.599 = private unnamed_addr constant [12 x i8] c"AES-128-CBC\00", align 1
@.str.600 = private unnamed_addr constant [7 x i8] c"aes128\00", align 1

; Function Attrs: nounwind uwtable
define internal void @md_names(ptr noundef %0, ptr noundef %1) #0 {
  %3 = alloca ptr, align 8
  %4 = alloca ptr, align 8
  %5 = alloca ptr, align 8
  %6 = alloca ptr, align 8
  store ptr %0, ptr %3, align 8, !tbaa !4
  store ptr %1, ptr %4, align 8, !tbaa !54
  call void @llvm.lifetime.start.p0(i64 8, ptr %5) #8
  %7 = load ptr, ptr %4, align 8, !tbaa !54
  store ptr %7, ptr %5, align 8, !tbaa !11
  call void @llvm.lifetime.start.p0(i64 8, ptr %6) #8
  %8 = load ptr, ptr %5, align 8, !tbaa !11
  %9 = call ptr @EVP_CIPHER_fetch(ptr noundef %8, ptr noundef @.str.599, ptr noundef null)
  store ptr %9, ptr %6, align 8, !tbaa !41
  %10 = load ptr, ptr %6, align 8, !tbaa !41
  %11 = call i32 @test_ptr(ptr noundef @.str.18, i32 noundef 4565, ptr noundef @.str.600, ptr noundef %10)
  %12 = icmp ne i32 %11, 0
  br i1 %12, label %14, label %13

13:                                               ; preds = %2
  store i32 0, ptr @success, align 4, !tbaa !9
  br label %14

14:                                               ; preds = %13, %2
  %15 = load ptr, ptr %6, align 8, !tbaa !41
  call void @EVP_CIPHER_free(ptr noundef %15)
  call void @llvm.lifetime.end.p0(i64 8, ptr %6) #8
  call void @llvm.lifetime.end.p0(i64 8, ptr %5) #8
  ret void
}