; Function Attrs: nounwind uwtable
define internal void @md_names(ptr readnone captures(none) %0, ptr noundef %1) #1 {
  %3 = tail call ptr @EVP_CIPHER_fetch(ptr noundef %1, ptr noundef nonnull @.str.599, ptr noundef null) #9
  %4 = tail call i32 @test_ptr(ptr noundef nonnull @.str.18, i32 noundef 4565, ptr noundef nonnull @.str.600, ptr noundef %3) #9
  %.not = icmp eq i32 %4, 0
  br i1 %.not, label %5, label %6

5:                                                ; preds = %2
  store i1 true, ptr @success, align 4
  br label %6

6:                                                ; preds = %5, %2
  tail call void @EVP_CIPHER_free(ptr noundef %3) #9
  ret void
}